target datalayout = "e-m:e-p270:32:32-p271:32:32-p272:64:64-i64:64-i128:128-f80:128-n8:16:32:64-S128"
target triple = "x86_64-pc-linux-gnu"

%struct.ImVec2 = type { float, float }
%struct.ImVec4 = type { float, float, float, float }
%struct.ImDrawListSharedData = type <{ %struct.ImVec2, ptr, ptr, float, float, float, float, float, i32, %struct.ImVec4, %struct.ImVector, [48 x %struct.ImVec2], float, [64 x i8], [4 x i8] }>
%struct.ImVector = type { i32, i32, ptr }

; Function Attrs: noinline noreturn nounwind uwtable
define linkonce_odr hidden void @__clang_call_terminate(ptr noundef %0) #11 comdat {
  %2 = call ptr @__cxa_begin_catch(ptr %0) #17
  call void @_ZSt9terminatev() #18
  unreachable
}

; Function Attrs: inlinehint mustprogress nounwind uwtable
define linkonce_odr void @_ZN8ImVectorI6ImVec2ED2Ev(ptr noundef nonnull align 8 dereferenceable(16) %0) unnamed_addr #7 comdat align 2 personality ptr @__gxx_personality_v0 {
  %2 = alloca ptr, align 8
  store ptr %0, ptr %2, align 8, !tbaa !36
  %3 = load ptr, ptr %2, align 8
  %4 = getelementptr inbounds nuw %struct.ImVector, ptr %3, i32 0, i32 2
  %5 = load ptr, ptr %4, align 8, !tbaa !40
  %6 = icmp ne ptr %5, null
  br i1 %6, label %7, label %11

7:                                                ; preds = %1
  %8 = getelementptr inbounds nuw %struct.ImVector, ptr %3, i32 0, i32 2
  %9 = load ptr, ptr %8, align 8, !tbaa !40
  invoke void @_ZN5ImGui7MemFreeEPv(ptr noundef %9)
          to label %10 unwind label %12

10:                                               ; preds = %7
  br label %11

11:                                               ; preds = %10, %1
  ret void

12:                                               ; preds = %7
  %13 = landingpad { ptr, i32 }
          catch ptr null
  %14 = extractvalue { ptr, i32 } %13, 0
  call void @__clang_call_terminate(ptr %14) #18
  unreachable
}

; Function Attrs: inlinehint mustprogress nounwind uwtable
define internal noundef float @_ZL5ImMaxIfET_S0_S0_(float noundef %0, float noundef %1) #7 {
  %3 = alloca float, align 4
  %4 = alloca float, align 4
  store float %0, ptr %3, align 4, !tbaa !11
  store float %1, ptr %4, align 4, !tbaa !11
  %5 = load float, ptr %3, align 4, !tbaa !11
  %6 = load float, ptr %4, align 4, !tbaa !11
  %7 = fcmp oge float %5, %6
  br i1 %7, label %8, label %10

8:                                                ; preds = %2
  %9 = load float, ptr %3, align 4, !tbaa !11
  br label %12

10:                                               ; preds = %2
  %11 = load float, ptr %4, align 4, !tbaa !11
  br label %12

12:                                               ; preds = %10, %8
  %13 = phi float [ %9, %8 ], [ %11, %10 ]
  ret float %13
}

; Function Attrs: mustprogress nounwind uwtable
define linkonce_odr void @_ZN6ImVec2C2Eff(ptr noundef nonnull align 4 dereferenceable(8) %0, float noundef %1, float noundef %2) unnamed_addr #3 comdat align 2 {
  %4 = alloca ptr, align 8
  %5 = alloca float, align 4
  %6 = alloca float, align 4
  store ptr %0, ptr %4, align 8, !tbaa !33
  store float %1, ptr %5, align 4, !tbaa !11
  store float %2, ptr %6, align 4, !tbaa !11
  %7 = load ptr, ptr %4, align 8
  %8 = getelementptr inbounds nuw %struct.ImVec2, ptr %7, i32 0, i32 0
  %9 = load float, ptr %5, align 4, !tbaa !11
  store float %9, ptr %8, align 4, !tbaa !34
  %10 = getelementptr inbounds nuw %struct.ImVec2, ptr %7, i32 0, i32 1
  %11 = load float, ptr %6, align 4, !tbaa !11
  store float %11, ptr %10, align 4, !tbaa !35
  ret void
}

; Function Attrs: inlinehint mustprogress nounwind uwtable
define linkonce_odr void @_ZN8ImVectorI6ImVec2EC2Ev(ptr noundef nonnull align 8 dereferenceable(16) %0) unnamed_addr #7 comdat align 2 {
  %2 = alloca ptr, align 8
  store ptr %0, ptr %2, align 8, !tbaa !36
  %3 = load ptr, ptr %2, align 8
  %4 = getelementptr inbounds nuw %struct.ImVector, ptr %3, i32 0, i32 1
  store i32 0, ptr %4, align 4, !tbaa !38
  %5 = getelementptr inbounds nuw %struct.ImVector, ptr %3, i32 0, i32 0
  store i32 0, ptr %5, align 8, !tbaa !39
  %6 = getelementptr inbounds nuw %struct.ImVector, ptr %3, i32 0, i32 2
  store ptr null, ptr %6, align 8, !tbaa !40
  ret void
}

; Function Attrs: mustprogress nounwind uwtable
define linkonce_odr void @_ZN6ImVec4C2Ev(ptr noundef nonnull align 4 dereferenceable(16) %0) unnamed_addr #3 comdat align 2 {
  %2 = alloca ptr, align 8
  store ptr %0, ptr %2, align 8, !tbaa !8
  %3 = load ptr, ptr %2, align 8
  %4 = getelementptr inbounds nuw %struct.ImVec4, ptr %3, i32 0, i32 0
  store float 0.000000e+00, ptr %4, align 4, !tbaa !13
  %5 = getelementptr inbounds nuw %struct.ImVec4, ptr %3, i32 0, i32 1
  store float 0.000000e+00, ptr %5, align 4, !tbaa !15
  %6 = getelementptr inbounds nuw %struct.ImVec4, ptr %3, i32 0, i32 2
  store float 0.000000e+00, ptr %6, align 4, !tbaa !16
  %7 = getelementptr inbounds nuw %struct.ImVec4, ptr %3, i32 0, i32 3
  store float 0.000000e+00, ptr %7, align 4, !tbaa !17
  ret void
}

; Function Attrs: mustprogress nounwind uwtable
define linkonce_odr void @_ZN6ImVec2C2Ev(ptr noundef nonnull align 4 dereferenceable(8) %0) unnamed_addr #3 comdat align 2 {
  %2 = alloca ptr, align 8
  store ptr %0, ptr %2, align 8, !tbaa !33
  %3 = load ptr, ptr %2, align 8
  %4 = getelementptr inbounds nuw %struct.ImVec2, ptr %3, i32 0, i32 0
  store float 0.000000e+00, ptr %4, align 4, !tbaa !34
  %5 = getelementptr inbounds nuw %struct.ImVec2, ptr %3, i32 0, i32 1
  store float 0.000000e+00, ptr %5, align 4, !tbaa !35
  ret void
}

; Function Attrs: mustprogress uwtable
define void @_ZN20ImDrawListSharedDataC2Ev(ptr noundef nonnull align 8 dereferenceable(532) %0) unnamed_addr #6 align 2 personality ptr @__gxx_personality_v0 {
  %2 = alloca ptr, align 8
  %3 = alloca ptr, align 8
  %4 = alloca i32, align 4
  %5 = alloca i32, align 4
  %6 = alloca float, align 4
  %7 = alloca %struct.ImVec2, align 4
  store ptr %0, ptr %2, align 8, !tbaa !18
  %8 = load ptr, ptr %2, align 8
  %9 = getelementptr inbounds nuw %struct.ImDrawListSharedData, ptr %8, i32 0, i32 0
  call void @_ZN6ImVec2C2Ev(ptr noundef nonnull align 4 dereferenceable(8) %9)
  %10 = getelementptr inbounds nuw %struct.ImDrawListSharedData, ptr %8, i32 0, i32 9
  call void @_ZN6ImVec4C2Ev(ptr noundef nonnull align 4 dereferenceable(16) %10)
  %11 = getelementptr inbounds nuw %struct.ImDrawListSharedData, ptr %8, i32 0, i32 10
  call void @_ZN8ImVectorI6ImVec2EC2Ev(ptr noundef nonnull align 8 dereferenceable(16) %11)
  %12 = getelementptr inbounds nuw %struct.ImDrawListSharedData, ptr %8, i32 0, i32 11
  %13 = getelementptr inbounds [48 x %struct.ImVec2], ptr %12, i32 0, i32 0
  %14 = getelementptr inbounds %struct.ImVec2, ptr %13, i64 48
  br label %15

15:                                               ; preds = %17, %1
  %16 = phi ptr [ %13, %1 ], [ %18, %17 ]
  invoke void @_ZN6ImVec2C2Ev(ptr noundef nonnull align 4 dereferenceable(8) %16)
          to label %17 unwind label %26

17:                                               ; preds = %15
  %18 = getelementptr inbounds %struct.ImVec2, ptr %16, i64 1
  %19 = icmp eq ptr %18, %14
  br i1 %19, label %20, label %15

20:                                               ; preds = %17
  call void @llvm.memset.p0.i64(ptr align 8 %8, i8 0, i64 536, i1 false)
  %21 = getelementptr inbounds nuw %struct.ImDrawListSharedData, ptr %8, i32 0, i32 7
  store float 1.000000e+00, ptr %21, align 8, !tbaa !20
  call void @llvm.lifetime.start.p0(i64 4, ptr %5) #17
  store i32 0, ptr %5, align 4, !tbaa !27
  br label %22

22:                                               ; preds = %45, %20
  %23 = load i32, ptr %5, align 4, !tbaa !27
  %24 = icmp slt i32 %23, 48
  br i1 %24, label %30, label %25

25:                                               ; preds = %22
  call void @llvm.lifetime.end.p0(i64 4, ptr %5) #17
  br label %52

26:                                               ; preds = %52, %15
  %27 = landingpad { ptr, i32 }
          cleanup
  %28 = extractvalue { ptr, i32 } %27, 0
  store ptr %28, ptr %3, align 8
  %29 = extractvalue { ptr, i32 } %27, 1
  store i32 %29, ptr %4, align 4
  br label %62

30:                                               ; preds = %22
  call void @llvm.lifetime.start.p0(i64 4, ptr %6) #17
  %31 = load i32, ptr %5, align 4, !tbaa !27
  %32 = sitofp i32 %31 to float
  %33 = fmul float %32, 2.000000e+00
  %34 = fmul float %33, 0x400921FB60000000
  %35 = fdiv float %34, 4.800000e+01
  store float %35, ptr %6, align 4, !tbaa !11
  call void @llvm.lifetime.start.p0(i64 8, ptr %7) #17
  %36 = load float, ptr %6, align 4, !tbaa !11
  %37 = call float @cosf(float noundef %36) #17, !tbaa !27
  %38 = load float, ptr %6, align 4, !tbaa !11
  %39 = call float @sinf(float noundef %38) #17, !tbaa !27
  invoke void @_ZN6ImVec2C2Eff(ptr noundef nonnull align 4 dereferenceable(8) %7, float noundef %37, float noundef %39)
          to label %40 unwind label %48

40:                                               ; preds = %30
  %41 = getelementptr inbounds nuw %struct.ImDrawListSharedData, ptr %8, i32 0, i32 11
  %42 = load i32, ptr %5, align 4, !tbaa !27
  %43 = sext i32 %42 to i64
  %44 = getelementptr inbounds [48 x %struct.ImVec2], ptr %41, i64 0, i64 %43
  call void @llvm.memcpy.p0.p0.i64(ptr align 8 %44, ptr align 4 %7, i64 8, i1 false), !tbaa.struct !28
  call void @llvm.lifetime.end.p0(i64 8, ptr %7) #17
  call void @llvm.lifetime.end.p0(i64 4, ptr %6) #17
  br label %45

45:                                               ; preds = %40
  %46 = load i32, ptr %5, align 4, !tbaa !27
  %47 = add nsw i32 %46, 1
  store i32 %47, ptr %5, align 4, !tbaa !27
  br label %22, !llvm.loop !29

48:                                               ; preds = %30
  %49 = landingpad { ptr, i32 }
          cleanup
  %50 = extractvalue { ptr, i32 } %49, 0
  store ptr %50, ptr %3, align 8
  %51 = extractvalue { ptr, i32 } %49, 1
  store i32 %51, ptr %4, align 4
  call void @llvm.lifetime.end.p0(i64 8, ptr %7) #17
  call void @llvm.lifetime.end.p0(i64 4, ptr %6) #17
  call void @llvm.lifetime.end.p0(i64 4, ptr %5) #17
  br label %62

52:                                               ; preds = %25
  %53 = getelementptr inbounds nuw %struct.ImDrawListSharedData, ptr %8, i32 0, i32 6
  %54 = load float, ptr %53, align 4, !tbaa !31
  %55 = invoke noundef float @_ZL5ImMaxIfET_S0_S0_(float noundef 4.800000e+01, float noundef 0x400921FB60000000)
          to label %56 unwind label %26

56:                                               ; preds = %52
  %57 = fdiv float 0x400921FB60000000, %55
  %58 = call float @cosf(float noundef %57) #17, !tbaa !27
  %59 = fsub float 1.000000e+00, %58
  %60 = fdiv float %54, %59
  %61 = getelementptr inbounds nuw %struct.ImDrawListSharedData, ptr %8, i32 0, i32 12
  store float %60, ptr %61, align 8, !tbaa !32
  ret void

62:                                               ; preds = %48, %26
  call void @_ZN8ImVectorI6ImVec2ED2Ev(ptr noundef nonnull align 8 dereferenceable(16) %11) #17
  br label %63

63:                                               ; preds = %62
  %64 = load ptr, ptr %3, align 8
  %65 = load i32, ptr %4, align 4
  %66 = insertvalue { ptr, i32 } poison, ptr %64, 0
  %67 = insertvalue { ptr, i32 } %66, i32 %65, 1
  resume { ptr, i32 } %67
}