; Function Attrs: mustprogress nofree nounwind memory(write) uwtable
define void @_ZN20ImDrawListSharedDataC2Ev(ptr noundef nonnull writeonly align 8 captures(none) dereferenceable(532) initializes((0, 536)) %0) unnamed_addr #4 align 2 personality ptr @__gxx_personality_v0 {
  %.ptr7 = getelementptr inbounds nuw i8, ptr %0, i64 80
  %2 = getelementptr inbounds nuw i8, ptr %0, i64 40
  tail call void @llvm.memset.p0.i64(ptr noundef nonnull align 8 dereferenceable(536) %0, i8 0, i64 536, i1 false)
  store float 1.000000e+00, ptr %2, align 8, !tbaa !8
  br label %5

3:                                                ; preds = %5
  %4 = getelementptr inbounds nuw i8, ptr %0, i64 464
  store float 0.000000e+00, ptr %4, align 8, !tbaa !18
  ret void

5:                                                ; preds = %1, %5
  %indvars.iv = phi i64 [ 0, %1 ], [ %indvars.iv.next, %5 ]
  %6 = trunc nuw nsw i64 %indvars.iv to i32
  %7 = uitofp nneg i32 %6 to float
  %8 = fmul float %7, 2.000000e+00
  %9 = fmul float %8, 0x400921FB60000000
  %10 = fdiv float %9, 4.800000e+01
  %11 = tail call float @cosf(float noundef %10) #42, !tbaa !19
  %12 = tail call float @sinf(float noundef %10) #42, !tbaa !19
  %13 = getelementptr inbounds nuw [48 x %struct.ImVec2], ptr %.ptr7, i64 0, i64 %indvars.iv
  store float %11, ptr %13, align 8
  %.sroa_idx8 = getelementptr inbounds nuw i8, ptr %13, i64 4
  store float %12, ptr %.sroa_idx8, align 4
  %indvars.iv.next = add nuw nsw i64 %indvars.iv, 1
  %exitcond.not = icmp eq i64 %indvars.iv.next, 48
  br i1 %exitcond.not, label %3, label %5, !llvm.loop !20
}